; Function Attrs: mustprogress nofree norecurse nosync nounwind ssp willreturn memory(argmem: readwrite) uwtable
define internal void @_ZN6open3d4core6kernelL26CPULogicalXorElementKernelIllEEvPKvS4_Pv(ptr noundef readonly captures(none) %0, ptr noundef readonly captures(none) %1, ptr noundef writeonly captures(none) initializes((0, 8)) %2) #15 {
  %4 = load i64, ptr %0, align 8, !tbaa !11
  %5 = icmp ne i64 %4, 0
  %6 = load i64, ptr %1, align 8, !tbaa !11
  %7 = icmp ne i64 %6, 0
  %8 = xor i1 %5, %7
  %9 = zext i1 %8 to i64
  store i64 %9, ptr %2, align 8, !tbaa !11
  ret void
}